target datalayout = "e-m:e-p270:32:32-p271:32:32-p272:64:64-i64:64-i128:128-f80:128-n8:16:32:64-S128"
target triple = "x86_64-unknown-linux-gnu"

%"class.std::shared_ptr.3" = type { %"class.std::__shared_ptr.4" }
%"class.std::__shared_ptr.4" = type { ptr, %"class.std::__shared_count" }
%"class.std::__shared_count" = type { ptr }
%"class.node::MutexBase" = type { %union.pthread_mutex_t }
%union.pthread_mutex_t = type { %struct.__pthread_mutex_s }
%struct.__pthread_mutex_s = type { i32, i32, i32, i32, i32, i16, i16, %struct.__pthread_internal_list }
%struct.__pthread_internal_list = type { ptr, ptr }
%"class.node::PerProcessOptions" = type { %"class.node::Options", %"class.std::shared_ptr", %"class.std::__cxx11::basic_string", %"class.std::__cxx11::basic_string", %"class.std::__cxx11::basic_string", i64, i8, i8, %"class.std::__cxx11::basic_string", i8, %"class.std::__cxx11::basic_string", %"class.std::vector", i8, i8, i8, i8, %"class.std::__cxx11::basic_string", %"class.std::__cxx11::basic_string", %"class.std::__cxx11::basic_string", %"class.std::__cxx11::basic_string", i64, i64, i8, i8, i8, i8, i8, i8, i8, i8, i8, %"class.std::__cxx11::basic_string", %"class.std::__cxx11::basic_string", %"class.std::__cxx11::basic_string", i8, %"class.std::vector" }
%"class.node::Options" = type { ptr }
%"class.std::shared_ptr" = type { %"class.std::__shared_ptr" }
%"class.std::__shared_ptr" = type { ptr, %"class.std::__shared_count" }
%"class.std::__cxx11::basic_string" = type { %"struct.std::__cxx11::basic_string<char>::_Alloc_hider", i64, %union.anon }
%"struct.std::__cxx11::basic_string<char>::_Alloc_hider" = type { ptr }
%union.anon = type { i64, [8 x i8] }
%"class.std::vector" = type { %"struct.std::_Vector_base" }
%"struct.std::_Vector_base" = type { %"struct.std::_Vector_base<std::__cxx11::basic_string<char>, std::allocator<std::__cxx11::basic_string<char>>>::_Vector_impl" }
%"struct.std::_Vector_base<std::__cxx11::basic_string<char>, std::allocator<std::__cxx11::basic_string<char>>>::_Vector_impl" = type { %"struct.std::_Vector_base<std::__cxx11::basic_string<char>, std::allocator<std::__cxx11::basic_string<char>>>::_Vector_impl_data" }
%"struct.std::_Vector_base<std::__cxx11::basic_string<char>, std::allocator<std::__cxx11::basic_string<char>>>::_Vector_impl_data" = type { ptr, ptr, ptr }
%"class.node::MutexBase<node::LibuvMutexTraits>::ScopedLock" = type { ptr }

@_ZN4node11per_process11cli_optionsE = external global %"class.std::shared_ptr.3", align 8
@_ZN4node6cryptoL10fips_mutexE = internal global %"class.node::MutexBase" zeroinitializer, align 8
@_ZN4node11per_process17cli_options_mutexE = external global %"class.node::MutexBase", align 8
@.str.2 = private unnamed_addr constant [7 x i8] c"legacy\00", align 1
@stderr = external global ptr, align 8
@.str.3 = private unnamed_addr constant [33 x i8] c"Unable to load legacy provider.\0A\00", align 1
@.str.4 = private unnamed_addr constant [43 x i8] c"Unable to initialize openssl secure heap.\0A\00", align 1
@.str.5 = private unnamed_addr constant [43 x i8] c"Unable to memory map openssl secure heap.\0A\00", align 1

; Function Attrs: mustprogress nounwind uwtable
define linkonce_odr dso_local noundef ptr @_ZNKSt12__shared_ptrIN4node17PerProcessOptionsELN9__gnu_cxx12_Lock_policyE2EE3getEv(ptr noundef nonnull align 8 dereferenceable(16) %this) #4 comdat align 2 {
entry:
  %this.addr = alloca ptr, align 8
  store ptr %this, ptr %this.addr, align 8
  %this1 = load ptr, ptr %this.addr, align 8
  %_M_ptr = getelementptr inbounds %"class.std::__shared_ptr.4", ptr %this1, i32 0, i32 0
  %0 = load ptr, ptr %_M_ptr, align 8
  ret ptr %0
}

; Function Attrs: mustprogress nounwind uwtable
define linkonce_odr dso_local void @_ZN4node16LibuvMutexTraits12mutex_unlockEP15pthread_mutex_t(ptr noundef %mutex) #4 comdat align 2 {
entry:
  %mutex.addr = alloca ptr, align 8
  store ptr %mutex, ptr %mutex.addr, align 8
  %0 = load ptr, ptr %mutex.addr, align 8
  call void @uv_mutex_unlock(ptr noundef %0)
  ret void
}

; Function Attrs: mustprogress nounwind uwtable
define linkonce_odr dso_local noundef ptr @_ZNKSt19__shared_ptr_accessIN4node17PerProcessOptionsELN9__gnu_cxx12_Lock_policyE2ELb0ELb0EE6_M_getEv(ptr noundef nonnull align 1 dereferenceable(1) %this) #4 comdat align 2 {
entry:
  %this.addr = alloca ptr, align 8
  store ptr %this, ptr %this.addr, align 8
  %this1 = load ptr, ptr %this.addr, align 8
  %call = call noundef ptr @_ZNKSt12__shared_ptrIN4node17PerProcessOptionsELN9__gnu_cxx12_Lock_policyE2EE3getEv(ptr noundef nonnull align 8 dereferenceable(16) %this1) #3
  ret ptr %call
}

; Function Attrs: mustprogress nounwind uwtable
define linkonce_odr dso_local void @_ZN4node16LibuvMutexTraits10mutex_lockEP15pthread_mutex_t(ptr noundef %mutex) #4 comdat align 2 {
entry:
  %mutex.addr = alloca ptr, align 8
  store ptr %mutex, ptr %mutex.addr, align 8
  %0 = load ptr, ptr %mutex.addr, align 8
  call void @uv_mutex_lock(ptr noundef %0)
  ret void
}

; Function Attrs: mustprogress nounwind uwtable
define linkonce_odr dso_local void @_ZN4node9MutexBaseINS_16LibuvMutexTraitsEE10ScopedLockD2Ev(ptr noundef nonnull align 8 dereferenceable(8) %this) unnamed_addr #4 comdat align 2 {
entry:
  %this.addr = alloca ptr, align 8
  store ptr %this, ptr %this.addr, align 8
  %this1 = load ptr, ptr %this.addr, align 8
  %mutex_ = getelementptr inbounds %"class.node::MutexBase<node::LibuvMutexTraits>::ScopedLock", ptr %this1, i32 0, i32 0
  %0 = load ptr, ptr %mutex_, align 8
  %mutex_2 = getelementptr inbounds %"class.node::MutexBase", ptr %0, i32 0, i32 0
  call void @_ZN4node16LibuvMutexTraits12mutex_unlockEP15pthread_mutex_t(ptr noundef %mutex_2)
  ret void
}

; Function Attrs: mustprogress nounwind uwtable
define internal noundef ptr @_ZL27ossl_check_SSL_COMP_sk_typeP17stack_st_SSL_COMP(ptr noundef %sk) #4 {
entry:
  %sk.addr = alloca ptr, align 8
  store ptr %sk, ptr %sk.addr, align 8
  %0 = load ptr, ptr %sk.addr, align 8
  ret ptr %0
}

; Function Attrs: mustprogress nounwind uwtable
define linkonce_odr dso_local noundef ptr @_ZNKSt19__shared_ptr_accessIN4node17PerProcessOptionsELN9__gnu_cxx12_Lock_policyE2ELb0ELb0EEptEv(ptr noundef nonnull align 1 dereferenceable(1) %this) #4 comdat align 2 {
entry:
  %this.addr = alloca ptr, align 8
  store ptr %this, ptr %this.addr, align 8
  %this1 = load ptr, ptr %this.addr, align 8
  %call = call noundef ptr @_ZNKSt19__shared_ptr_accessIN4node17PerProcessOptionsELN9__gnu_cxx12_Lock_policyE2ELb0ELb0EE6_M_getEv(ptr noundef nonnull align 1 dereferenceable(1) %this1) #3
  ret ptr %call
}

; Function Attrs: mustprogress nounwind uwtable
define linkonce_odr dso_local void @_ZN4node9MutexBaseINS_16LibuvMutexTraitsEE10ScopedLockC2ERKS2_(ptr noundef nonnull align 8 dereferenceable(8) %this, ptr noundef nonnull align 8 dereferenceable(40) %mutex) unnamed_addr #4 comdat align 2 {
entry:
  %this.addr = alloca ptr, align 8
  %mutex.addr = alloca ptr, align 8
  store ptr %this, ptr %this.addr, align 8
  store ptr %mutex, ptr %mutex.addr, align 8
  %this1 = load ptr, ptr %this.addr, align 8
  %mutex_ = getelementptr inbounds %"class.node::MutexBase<node::LibuvMutexTraits>::ScopedLock", ptr %this1, i32 0, i32 0
  %0 = load ptr, ptr %mutex.addr, align 8
  store ptr %0, ptr %mutex_, align 8
  %mutex_2 = getelementptr inbounds %"class.node::MutexBase<node::LibuvMutexTraits>::ScopedLock", ptr %this1, i32 0, i32 0
  %1 = load ptr, ptr %mutex_2, align 8
  %mutex_3 = getelementptr inbounds %"class.node::MutexBase", ptr %1, i32 0, i32 0
  call void @_ZN4node16LibuvMutexTraits10mutex_lockEP15pthread_mutex_t(ptr noundef %mutex_3)
  ret void
}

; Function Attrs: mustprogress nounwind uwtable
define dso_local void @_ZN4node6crypto14InitCryptoOnceEv() #4 {
entry:
  %lock = alloca %"class.node::MutexBase<node::LibuvMutexTraits>::ScopedLock", align 8
  %fips_lock = alloca %"class.node::MutexBase<node::LibuvMutexTraits>::ScopedLock", align 8
  %settings = alloca ptr, align 8
  %legacy_provider = alloca ptr, align 8
  call void @_ZN4node9MutexBaseINS_16LibuvMutexTraitsEE10ScopedLockC2ERKS2_(ptr noundef nonnull align 8 dereferenceable(8) %lock, ptr noundef nonnull align 8 dereferenceable(40) @_ZN4node11per_process17cli_options_mutexE)
  call void @_ZN4node9MutexBaseINS_16LibuvMutexTraitsEE10ScopedLockC2ERKS2_(ptr noundef nonnull align 8 dereferenceable(8) %fips_lock, ptr noundef nonnull align 8 dereferenceable(40) @_ZN4node6cryptoL10fips_mutexE)
  %call = call ptr @OPENSSL_INIT_new()
  store ptr %call, ptr %settings, align 8
  %call1 = call noundef ptr @_ZNKSt19__shared_ptr_accessIN4node17PerProcessOptionsELN9__gnu_cxx12_Lock_policyE2ELb0ELb0EEptEv(ptr noundef nonnull align 1 dereferenceable(1) @_ZN4node11per_process11cli_optionsE) #3
  %openssl_legacy_provider = getelementptr inbounds %"class.node::PerProcessOptions", ptr %call1, i32 0, i32 27
  %0 = load i8, ptr %openssl_legacy_provider, align 1
  %tobool = trunc i8 %0 to i1
  br i1 %tobool, label %if.then, label %if.end5

if.then:                                          ; preds = %entry
  %call2 = call ptr @OSSL_PROVIDER_load(ptr noundef null, ptr noundef @.str.2)
  store ptr %call2, ptr %legacy_provider, align 8
  %1 = load ptr, ptr %legacy_provider, align 8
  %cmp = icmp eq ptr %1, null
  br i1 %cmp, label %if.then3, label %if.end

if.then3:                                         ; preds = %if.then
  %2 = load ptr, ptr @stderr, align 8
  %call4 = call i32 (ptr, ptr, ...) @fprintf(ptr noundef %2, ptr noundef @.str.3)
  br label %if.end

if.end:                                           ; preds = %if.then3, %if.then
  br label %if.end5

if.end5:                                          ; preds = %if.end, %entry
  %3 = load ptr, ptr %settings, align 8
  %call6 = call i32 @OPENSSL_init_ssl(i64 noundef 0, ptr noundef %3)
  %4 = load ptr, ptr %settings, align 8
  call void @OPENSSL_INIT_free(ptr noundef %4)
  store ptr null, ptr %settings, align 8
  %call7 = call noundef ptr @_ZNKSt19__shared_ptr_accessIN4node17PerProcessOptionsELN9__gnu_cxx12_Lock_policyE2ELb0ELb0EEptEv(ptr noundef nonnull align 1 dereferenceable(1) @_ZN4node11per_process11cli_optionsE) #3
  %secure_heap = getelementptr inbounds %"class.node::PerProcessOptions", ptr %call7, i32 0, i32 20
  %5 = load i64, ptr %secure_heap, align 8
  %cmp8 = icmp ne i64 %5, 0
  br i1 %cmp8, label %if.then9, label %if.end19

if.then9:                                         ; preds = %if.end5
  %call10 = call noundef ptr @_ZNKSt19__shared_ptr_accessIN4node17PerProcessOptionsELN9__gnu_cxx12_Lock_policyE2ELb0ELb0EEptEv(ptr noundef nonnull align 1 dereferenceable(1) @_ZN4node11per_process11cli_optionsE) #3
  %secure_heap11 = getelementptr inbounds %"class.node::PerProcessOptions", ptr %call10, i32 0, i32 20
  %6 = load i64, ptr %secure_heap11, align 8
  %call12 = call noundef ptr @_ZNKSt19__shared_ptr_accessIN4node17PerProcessOptionsELN9__gnu_cxx12_Lock_policyE2ELb0ELb0EEptEv(ptr noundef nonnull align 1 dereferenceable(1) @_ZN4node11per_process11cli_optionsE) #3
  %secure_heap_min = getelementptr inbounds %"class.node::PerProcessOptions", ptr %call12, i32 0, i32 21
  %7 = load i64, ptr %secure_heap_min, align 8
  %conv = trunc i64 %7 to i32
  %conv13 = sext i32 %conv to i64
  %call14 = call i32 @CRYPTO_secure_malloc_init(i64 noundef %6, i64 noundef %conv13)
  switch i32 %call14, label %sw.epilog [
    i32 0, label %sw.bb
    i32 2, label %sw.bb16
    i32 1, label %sw.bb18
  ]

sw.bb:                                            ; preds = %if.then9
  %8 = load ptr, ptr @stderr, align 8
  %call15 = call i32 (ptr, ptr, ...) @fprintf(ptr noundef %8, ptr noundef @.str.4)
  br label %sw.epilog

sw.bb16:                                          ; preds = %if.then9
  %9 = load ptr, ptr @stderr, align 8
  %call17 = call i32 (ptr, ptr, ...) @fprintf(ptr noundef %9, ptr noundef @.str.5)
  br label %sw.epilog

sw.bb18:                                          ; preds = %if.then9
  br label %sw.epilog

sw.epilog:                                        ; preds = %sw.bb18, %sw.bb16, %sw.bb, %if.then9
  br label %if.end19

if.end19:                                         ; preds = %sw.epilog, %if.end5
  %call20 = call ptr @SSL_COMP_get_compression_methods()
  %call21 = call noundef ptr @_ZL27ossl_check_SSL_COMP_sk_typeP17stack_st_SSL_COMP(ptr noundef %call20)
  call void @OPENSSL_sk_zero(ptr noundef %call21)
  %call22 = call i32 @ERR_load_ENGINE_strings()
  call void @ENGINE_load_builtin_engines()
  call void @_ZN4node9MutexBaseINS_16LibuvMutexTraitsEE10ScopedLockD2Ev(ptr noundef nonnull align 8 dereferenceable(8) %fips_lock) #3
  call void @_ZN4node9MutexBaseINS_16LibuvMutexTraitsEE10ScopedLockD2Ev(ptr noundef nonnull align 8 dereferenceable(8) %lock) #3
  ret void
}