; Function Attrs: mustprogress nounwind uwtable
define dso_local void @_ZN4node6crypto14InitCryptoOnceEv() #4 {
entry:
  tail call void @uv_mutex_lock(ptr noundef nonnull @_ZN4node11per_process17cli_options_mutexE) #25
  tail call void @uv_mutex_lock(ptr noundef nonnull @_ZN4node6cryptoL10fips_mutexE) #25
  %call = tail call ptr @OPENSSL_INIT_new() #25
  %0 = load ptr, ptr @_ZN4node11per_process11cli_optionsE, align 8
  %openssl_legacy_provider = getelementptr inbounds i8, ptr %0, i64 389
  %1 = load i8, ptr %openssl_legacy_provider, align 1
  %2 = and i8 %1, 1
  %tobool.not = icmp eq i8 %2, 0
  br i1 %tobool.not, label %if.end5, label %if.then

if.then:                                          ; preds = %entry
  %call2 = tail call ptr @OSSL_PROVIDER_load(ptr noundef null, ptr noundef nonnull @.str.2) #25
  %cmp = icmp eq ptr %call2, null
  br i1 %cmp, label %if.then3, label %if.end5

if.then3:                                         ; preds = %if.then
  %3 = load ptr, ptr @stderr, align 8
  %4 = tail call i64 @fwrite(ptr nonnull @.str.3, i64 32, i64 1, ptr %3) #26
  br label %if.end5

if.end5:                                          ; preds = %if.then, %if.then3, %entry
  %call6 = tail call i32 @OPENSSL_init_ssl(i64 noundef 0, ptr noundef %call) #25
  tail call void @OPENSSL_INIT_free(ptr noundef %call) #25
  %5 = load ptr, ptr @_ZN4node11per_process11cli_optionsE, align 8
  %secure_heap = getelementptr inbounds i8, ptr %5, i64 368
  %6 = load i64, ptr %secure_heap, align 8
  %cmp8.not = icmp eq i64 %6, 0
  br i1 %cmp8.not, label %if.end19, label %if.then9

if.then9:                                         ; preds = %if.end5
  %secure_heap_min = getelementptr inbounds i8, ptr %5, i64 376
  %7 = load i64, ptr %secure_heap_min, align 8
  %sext = shl i64 %7, 32
  %conv13 = ashr exact i64 %sext, 32
  %call14 = tail call i32 @CRYPTO_secure_malloc_init(i64 noundef %6, i64 noundef %conv13) #25
  switch i32 %call14, label %if.end19 [
    i32 0, label %if.end19.sink.split
    i32 2, label %sw.bb16
  ]

sw.bb16:                                          ; preds = %if.then9
  br label %if.end19.sink.split

if.end19.sink.split:                              ; preds = %if.then9, %sw.bb16
  %.str.4.sink = phi ptr [ @.str.5, %sw.bb16 ], [ @.str.4, %if.then9 ]
  %8 = load ptr, ptr @stderr, align 8
  %9 = tail call i64 @fwrite(ptr nonnull %.str.4.sink, i64 42, i64 1, ptr %8) #26
  br label %if.end19

if.end19:                                         ; preds = %if.end19.sink.split, %if.then9, %if.end5
  %call20 = tail call ptr @SSL_COMP_get_compression_methods() #25
  tail call void @OPENSSL_sk_zero(ptr noundef %call20) #25
  %call22 = tail call i32 @ERR_load_ENGINE_strings() #25
  tail call void @ENGINE_load_builtin_engines() #25
  tail call void @uv_mutex_unlock(ptr noundef nonnull @_ZN4node6cryptoL10fips_mutexE) #25
  tail call void @uv_mutex_unlock(ptr noundef nonnull @_ZN4node11per_process17cli_options_mutexE) #25
  ret void
}